target datalayout = "e-m:e-p270:32:32-p271:32:32-p272:64:64-i64:64-i128:128-f80:128-n8:16:32:64-S128"
target triple = "x86_64-pc-linux-gnu"

%struct.AVRational = type { i32, i32 }
%struct.AVCodecParameters = type { i32, i32, i32, ptr, i32, ptr, i32, i32, i64, i32, i32, i32, i32, i32, i32, %struct.AVRational, %struct.AVRational, i32, i32, i32, i32, i32, i32, i32, %struct.AVChannelLayout, i32, i32, i32, i32, i32, i32 }
%struct.AVChannelLayout = type { i32, i32, %union.anon, ptr }
%union.anon = type { i64 }

@.str.76 = private unnamed_addr constant [45 x i8] c"Cannot allocate memory for the config info.\0A\00", align 1
@ff_mpeg4audio_sample_rates = external constant [16 x i32], align 16
@.str.78 = private unnamed_addr constant [25 x i8] c"Unsupported sample rate\0A\00", align 1

; Function Attrs: nounwind uwtable
define internal i32 @latm_context2config(ptr noundef %0, ptr noundef %1, ptr noundef %2) #0 {
  %4 = alloca i32, align 4
  %5 = alloca ptr, align 8
  %6 = alloca ptr, align 8
  %7 = alloca ptr, align 8
  %8 = alloca [6 x i8], align 1
  %9 = alloca i32, align 4
  %10 = alloca ptr, align 8
  %11 = alloca i32, align 4
  store ptr %0, ptr %5, align 8, !tbaa !13
  store ptr %1, ptr %6, align 8, !tbaa !25
  store ptr %2, ptr %7, align 8, !tbaa !97
  call void @llvm.lifetime.start.p0(i64 6, ptr %8) #8
  call void @llvm.lifetime.start.p0(i64 4, ptr %9) #8
  call void @llvm.lifetime.start.p0(i64 8, ptr %10) #8
  %12 = load ptr, ptr %7, align 8, !tbaa !97
  store ptr null, ptr %12, align 8, !tbaa !4
  store i32 0, ptr %9, align 4, !tbaa !9
  br label %13

13:                                               ; preds = %27, %3
  %14 = load i32, ptr %9, align 4, !tbaa !9
  %15 = icmp slt i32 %14, 16
  br i1 %15, label %16, label %30

16:                                               ; preds = %13
  %17 = load i32, ptr %9, align 4, !tbaa !9
  %18 = sext i32 %17 to i64
  %19 = getelementptr inbounds [16 x i32], ptr @ff_mpeg4audio_sample_rates, i64 0, i64 %18
  %20 = load i32, ptr %19, align 4, !tbaa !9
  %21 = load ptr, ptr %6, align 8, !tbaa !25
  %22 = getelementptr inbounds nuw %struct.AVCodecParameters, ptr %21, i32 0, i32 25
  %23 = load i32, ptr %22, align 8, !tbaa !50
  %24 = icmp eq i32 %20, %23
  br i1 %24, label %25, label %26

25:                                               ; preds = %16
  br label %30

26:                                               ; preds = %16
  br label %27

27:                                               ; preds = %26
  %28 = load i32, ptr %9, align 4, !tbaa !9
  %29 = add nsw i32 %28, 1
  store i32 %29, ptr %9, align 4, !tbaa !9
  br label %13, !llvm.loop !111

30:                                               ; preds = %25, %13
  %31 = load i32, ptr %9, align 4, !tbaa !9
  %32 = icmp eq i32 %31, 16
  br i1 %32, label %33, label %35

33:                                               ; preds = %30
  %34 = load ptr, ptr %5, align 8, !tbaa !13
  call void (ptr, i32, ptr, ...) @av_log(ptr noundef %34, i32 noundef 16, ptr noundef @.str.78)
  store i32 -38, ptr %4, align 4
  store i32 1, ptr %11, align 4
  br label %62

35:                                               ; preds = %30
  %36 = getelementptr inbounds [6 x i8], ptr %8, i64 0, i64 0
  store i8 64, ptr %36, align 1, !tbaa !69
  %37 = getelementptr inbounds [6 x i8], ptr %8, i64 0, i64 1
  store i8 0, ptr %37, align 1, !tbaa !69
  %38 = load i32, ptr %9, align 4, !tbaa !9
  %39 = or i32 32, %38
  %40 = trunc i32 %39 to i8
  %41 = getelementptr inbounds [6 x i8], ptr %8, i64 0, i64 2
  store i8 %40, ptr %41, align 1, !tbaa !69
  %42 = load ptr, ptr %6, align 8, !tbaa !25
  %43 = getelementptr inbounds nuw %struct.AVCodecParameters, ptr %42, i32 0, i32 24
  %44 = getelementptr inbounds nuw %struct.AVChannelLayout, ptr %43, i32 0, i32 1
  %45 = load i32, ptr %44, align 4, !tbaa !51
  %46 = shl i32 %45, 4
  %47 = trunc i32 %46 to i8
  %48 = getelementptr inbounds [6 x i8], ptr %8, i64 0, i64 3
  store i8 %47, ptr %48, align 1, !tbaa !69
  %49 = getelementptr inbounds [6 x i8], ptr %8, i64 0, i64 4
  store i8 63, ptr %49, align 1, !tbaa !69
  %50 = getelementptr inbounds [6 x i8], ptr %8, i64 0, i64 5
  store i8 -64, ptr %50, align 1, !tbaa !69
  %51 = call noalias ptr @av_malloc(i64 noundef 13)
  store ptr %51, ptr %10, align 8, !tbaa !4
  %52 = load ptr, ptr %10, align 8, !tbaa !4
  %53 = icmp ne ptr %52, null
  br i1 %53, label %56, label %54

54:                                               ; preds = %35
  %55 = load ptr, ptr %5, align 8, !tbaa !13
  call void (ptr, i32, ptr, ...) @av_log(ptr noundef %55, i32 noundef 16, ptr noundef @.str.76)
  store i32 -12, ptr %4, align 4
  store i32 1, ptr %11, align 4
  br label %62

56:                                               ; preds = %35
  %57 = load ptr, ptr %10, align 8, !tbaa !4
  %58 = getelementptr inbounds [6 x i8], ptr %8, i64 0, i64 0
  %59 = call ptr @ff_data_to_hex(ptr noundef %57, ptr noundef %58, i32 noundef 6, i32 noundef 1)
  %60 = load ptr, ptr %10, align 8, !tbaa !4
  %61 = load ptr, ptr %7, align 8, !tbaa !97
  store ptr %60, ptr %61, align 8, !tbaa !4
  store i32 0, ptr %4, align 4
  store i32 1, ptr %11, align 4
  br label %62

62:                                               ; preds = %56, %54, %33
  call void @llvm.lifetime.end.p0(i64 8, ptr %10) #8
  call void @llvm.lifetime.end.p0(i64 4, ptr %9) #8
  call void @llvm.lifetime.end.p0(i64 6, ptr %8) #8
  %63 = load i32, ptr %4, align 4
  ret i32 %63
}