; Function Attrs: nounwind uwtable
define internal fastcc range(i32 -38, 1) i32 @latm_context2config(ptr noundef nonnull %0, ptr noundef readonly captures(none) %1, ptr noundef nonnull writeonly captures(none) initializes((0, 8)) %2) unnamed_addr #0 {
  %4 = alloca [6 x i8], align 1
  call void @llvm.lifetime.start.p0(i64 6, ptr nonnull %4) #10
  store ptr null, ptr %2, align 8, !tbaa !23
  %5 = getelementptr inbounds nuw i8, ptr %1, i64 152
  %6 = load i32, ptr %5, align 8, !tbaa !59
  br label %7

7:                                                ; preds = %3, %11
  %indvars.iv = phi i64 [ 0, %3 ], [ %indvars.iv.next, %11 ]
  %8 = getelementptr inbounds nuw [16 x i32], ptr @ff_mpeg4audio_sample_rates, i64 0, i64 %indvars.iv
  %9 = load i32, ptr %8, align 4, !tbaa !47
  %10 = icmp eq i32 %9, %6
  br i1 %10, label %.thread, label %11

11:                                               ; preds = %7
  %indvars.iv.next = add nuw nsw i64 %indvars.iv, 1
  %exitcond.not = icmp eq i64 %indvars.iv.next, 16
  br i1 %exitcond.not, label %12, label %7, !llvm.loop !87

12:                                               ; preds = %11
  tail call void (ptr, i32, ptr, ...) @av_log(ptr noundef nonnull %0, i32 noundef 16, ptr noundef nonnull @.str.78) #10
  br label %27

.thread:                                          ; preds = %7
  store i8 64, ptr %4, align 1, !tbaa !48
  %13 = getelementptr inbounds nuw i8, ptr %4, i64 1
  store i8 0, ptr %13, align 1, !tbaa !48
  %14 = trunc i64 %indvars.iv to i8
  %15 = or i8 %14, 32
  %16 = getelementptr inbounds nuw i8, ptr %4, i64 2
  store i8 %15, ptr %16, align 1, !tbaa !48
  %17 = getelementptr inbounds nuw i8, ptr %1, i64 132
  %18 = load i32, ptr %17, align 4, !tbaa !60
  %.tr = trunc i32 %18 to i8
  %19 = shl i8 %.tr, 4
  %20 = getelementptr inbounds nuw i8, ptr %4, i64 3
  store i8 %19, ptr %20, align 1, !tbaa !48
  %21 = getelementptr inbounds nuw i8, ptr %4, i64 4
  store i8 63, ptr %21, align 1, !tbaa !48
  %22 = getelementptr inbounds nuw i8, ptr %4, i64 5
  store i8 -64, ptr %22, align 1, !tbaa !48
  %23 = tail call noalias ptr @av_malloc(i64 noundef 13) #10
  %.not = icmp eq ptr %23, null
  br i1 %.not, label %24, label %25

24:                                               ; preds = %.thread
  tail call void (ptr, i32, ptr, ...) @av_log(ptr noundef nonnull %0, i32 noundef 16, ptr noundef nonnull @.str.76) #10
  br label %27

25:                                               ; preds = %.thread
  %26 = call ptr @ff_data_to_hex(ptr noundef nonnull %23, ptr noundef nonnull %4, i32 noundef 6, i32 noundef 1) #10
  store ptr %23, ptr %2, align 8, !tbaa !23
  br label %27

27:                                               ; preds = %25, %24, %12
  %.0 = phi i32 [ -38, %12 ], [ 0, %25 ], [ -12, %24 ]
  call void @llvm.lifetime.end.p0(i64 6, ptr nonnull %4) #10
  ret i32 %.0
}